(dp0
S'filterUpV'
p1
I255
sS'upper'
p2
I23
sS'lower'
p3
I0
sS'filterDown'
p4
I52
sS'filterUpS'
p5
I255
sS'dilate'
p6
I17
sS'smooth'
p7
I37
sS'filterDownS'
p8
I21
sS'filterDownV'
p9
I20
sS'erode'
p10
I32
sS'filterUp'
p11
I255
s.